target datalayout = "e-m:e-p270:32:32-p271:32:32-p272:64:64-i64:64-i128:128-f80:128-n8:16:32:64-S128"
target triple = "x86_64-pc-linux-gnu"

@.str = private unnamed_addr constant [123 x i8] c"generated/home/dtcxzyw/WorkSpace/Projects/compilers/llvm-opt-benchmark/bench/libquic/libquic/boringssl/crypto/bn/convert.c\00", align 1
@.str.1 = private unnamed_addr constant [4 x i8] c"%lu\00", align 1
@.str.2 = private unnamed_addr constant [7 x i8] c"%019lu\00", align 1

; Function Attrs: nounwind uwtable
define hidden ptr @BN_bn2dec(ptr noundef %0) #0 {
  %2 = alloca ptr, align 8
  %3 = alloca i32, align 4
  %4 = alloca i32, align 4
  %5 = alloca i32, align 4
  %6 = alloca ptr, align 8
  %7 = alloca ptr, align 8
  %8 = alloca ptr, align 8
  %9 = alloca ptr, align 8
  %10 = alloca ptr, align 8
  store ptr %0, ptr %2, align 8, !tbaa !13
  call void @llvm.lifetime.start.p0(i64 4, ptr %3) #7
  store i32 0, ptr %3, align 4, !tbaa !19
  call void @llvm.lifetime.start.p0(i64 4, ptr %4) #7
  call void @llvm.lifetime.start.p0(i64 4, ptr %5) #7
  store i32 0, ptr %5, align 4, !tbaa !19
  call void @llvm.lifetime.start.p0(i64 8, ptr %6) #7
  store ptr null, ptr %6, align 8, !tbaa !6
  call void @llvm.lifetime.start.p0(i64 8, ptr %7) #7
  call void @llvm.lifetime.start.p0(i64 8, ptr %8) #7
  store ptr null, ptr %8, align 8, !tbaa !13
  call void @llvm.lifetime.start.p0(i64 8, ptr %9) #7
  store ptr null, ptr %9, align 8, !tbaa !38
  call void @llvm.lifetime.start.p0(i64 8, ptr %10) #7
  %11 = load ptr, ptr %2, align 8, !tbaa !13
  %12 = call i32 @BN_num_bits(ptr noundef %11)
  %13 = mul i32 %12, 3
  store i32 %13, ptr %3, align 4, !tbaa !19
  %14 = load i32, ptr %3, align 4, !tbaa !19
  %15 = sdiv i32 %14, 10
  %16 = load i32, ptr %3, align 4, !tbaa !19
  %17 = sdiv i32 %16, 1000
  %18 = add nsw i32 %15, %17
  %19 = add nsw i32 %18, 1
  %20 = add nsw i32 %19, 1
  store i32 %20, ptr %4, align 4, !tbaa !19
  %21 = load i32, ptr %4, align 4, !tbaa !19
  %22 = sdiv i32 %21, 19
  %23 = add nsw i32 %22, 1
  %24 = sext i32 %23 to i64
  %25 = mul i64 %24, 8
  %26 = call noalias ptr @malloc(i64 noundef %25) #8
  store ptr %26, ptr %9, align 8, !tbaa !38
  %27 = load i32, ptr %4, align 4, !tbaa !19
  %28 = add nsw i32 %27, 3
  %29 = sext i32 %28 to i64
  %30 = call noalias ptr @malloc(i64 noundef %29) #8
  store ptr %30, ptr %6, align 8, !tbaa !6
  %31 = load ptr, ptr %6, align 8, !tbaa !6
  %32 = icmp eq ptr %31, null
  br i1 %32, label %36, label %33

33:                                               ; preds = %1
  %34 = load ptr, ptr %9, align 8, !tbaa !38
  %35 = icmp eq ptr %34, null
  br i1 %35, label %36, label %37

36:                                               ; preds = %33, %1
  call void @ERR_put_error(i32 noundef 3, i32 noundef 0, i32 noundef 65, ptr noundef @.str, i32 noundef 391)
  br label %127

37:                                               ; preds = %33
  %38 = load ptr, ptr %2, align 8, !tbaa !13
  %39 = call ptr @BN_dup(ptr noundef %38)
  store ptr %39, ptr %8, align 8, !tbaa !13
  %40 = load ptr, ptr %8, align 8, !tbaa !13
  %41 = icmp eq ptr %40, null
  br i1 %41, label %42, label %43

42:                                               ; preds = %37
  br label %127

43:                                               ; preds = %37
  %44 = load ptr, ptr %6, align 8, !tbaa !6
  store ptr %44, ptr %7, align 8, !tbaa !6
  %45 = load ptr, ptr %9, align 8, !tbaa !38
  store ptr %45, ptr %10, align 8, !tbaa !38
  %46 = load ptr, ptr %8, align 8, !tbaa !13
  %47 = call i32 @BN_is_zero(ptr noundef %46)
  %48 = icmp ne i32 %47, 0
  br i1 %48, label %49, label %54

49:                                               ; preds = %43
  %50 = load ptr, ptr %7, align 8, !tbaa !6
  %51 = getelementptr inbounds nuw i8, ptr %50, i32 1
  store ptr %51, ptr %7, align 8, !tbaa !6
  store i8 48, ptr %50, align 1, !tbaa !21
  %52 = load ptr, ptr %7, align 8, !tbaa !6
  %53 = getelementptr inbounds nuw i8, ptr %52, i32 1
  store ptr %53, ptr %7, align 8, !tbaa !6
  store i8 0, ptr %52, align 1, !tbaa !21
  br label %126

54:                                               ; preds = %43
  %55 = load ptr, ptr %8, align 8, !tbaa !13
  %56 = call i32 @BN_is_negative(ptr noundef %55)
  %57 = icmp ne i32 %56, 0
  br i1 %57, label %58, label %61

58:                                               ; preds = %54
  %59 = load ptr, ptr %7, align 8, !tbaa !6
  %60 = getelementptr inbounds nuw i8, ptr %59, i32 1
  store ptr %60, ptr %7, align 8, !tbaa !6
  store i8 45, ptr %59, align 1, !tbaa !21
  br label %61

61:                                               ; preds = %58, %54
  br label %62

62:                                               ; preds = %67, %61
  %63 = load ptr, ptr %8, align 8, !tbaa !13
  %64 = call i32 @BN_is_zero(ptr noundef %63)
  %65 = icmp ne i32 %64, 0
  %66 = xor i1 %65, true
  br i1 %66, label %67, label %73

67:                                               ; preds = %62
  %68 = load ptr, ptr %8, align 8, !tbaa !13
  %69 = call i64 @BN_div_word(ptr noundef %68, i64 noundef -8446744073709551616)
  %70 = load ptr, ptr %10, align 8, !tbaa !38
  store i64 %69, ptr %70, align 8, !tbaa !11
  %71 = load ptr, ptr %10, align 8, !tbaa !38
  %72 = getelementptr inbounds nuw i64, ptr %71, i32 1
  store ptr %72, ptr %10, align 8, !tbaa !38
  br label %62, !llvm.loop !39

73:                                               ; preds = %62
  %74 = load ptr, ptr %10, align 8, !tbaa !38
  %75 = getelementptr inbounds i64, ptr %74, i32 -1
  store ptr %75, ptr %10, align 8, !tbaa !38
  %76 = load ptr, ptr %7, align 8, !tbaa !6
  %77 = load i32, ptr %4, align 4, !tbaa !19
  %78 = add nsw i32 %77, 3
  %79 = sext i32 %78 to i64
  %80 = load ptr, ptr %7, align 8, !tbaa !6
  %81 = load ptr, ptr %6, align 8, !tbaa !6
  %82 = ptrtoint ptr %80 to i64
  %83 = ptrtoint ptr %81 to i64
  %84 = sub i64 %82, %83
  %85 = sub i64 %79, %84
  %86 = load ptr, ptr %10, align 8, !tbaa !38
  %87 = load i64, ptr %86, align 8, !tbaa !11
  %88 = call i32 (ptr, i64, ptr, ...) @BIO_snprintf(ptr noundef %76, i64 noundef %85, ptr noundef @.str.1, i64 noundef %87)
  br label %89

89:                                               ; preds = %93, %73
  %90 = load ptr, ptr %7, align 8, !tbaa !6
  %91 = load i8, ptr %90, align 1, !tbaa !21
  %92 = icmp ne i8 %91, 0
  br i1 %92, label %93, label %96

93:                                               ; preds = %89
  %94 = load ptr, ptr %7, align 8, !tbaa !6
  %95 = getelementptr inbounds nuw i8, ptr %94, i32 1
  store ptr %95, ptr %7, align 8, !tbaa !6
  br label %89, !llvm.loop !40

96:                                               ; preds = %89
  br label %97

97:                                               ; preds = %124, %96
  %98 = load ptr, ptr %10, align 8, !tbaa !38
  %99 = load ptr, ptr %9, align 8, !tbaa !38
  %100 = icmp ne ptr %98, %99
  br i1 %100, label %101, label %125

101:                                              ; preds = %97
  %102 = load ptr, ptr %10, align 8, !tbaa !38
  %103 = getelementptr inbounds i64, ptr %102, i32 -1
  store ptr %103, ptr %10, align 8, !tbaa !38
  %104 = load ptr, ptr %7, align 8, !tbaa !6
  %105 = load i32, ptr %4, align 4, !tbaa !19
  %106 = add nsw i32 %105, 3
  %107 = sext i32 %106 to i64
  %108 = load ptr, ptr %7, align 8, !tbaa !6
  %109 = load ptr, ptr %6, align 8, !tbaa !6
  %110 = ptrtoint ptr %108 to i64
  %111 = ptrtoint ptr %109 to i64
  %112 = sub i64 %110, %111
  %113 = sub i64 %107, %112
  %114 = load ptr, ptr %10, align 8, !tbaa !38
  %115 = load i64, ptr %114, align 8, !tbaa !11
  %116 = call i32 (ptr, i64, ptr, ...) @BIO_snprintf(ptr noundef %104, i64 noundef %113, ptr noundef @.str.2, i64 noundef %115)
  br label %117

117:                                              ; preds = %121, %101
  %118 = load ptr, ptr %7, align 8, !tbaa !6
  %119 = load i8, ptr %118, align 1, !tbaa !21
  %120 = icmp ne i8 %119, 0
  br i1 %120, label %121, label %124

121:                                              ; preds = %117
  %122 = load ptr, ptr %7, align 8, !tbaa !6
  %123 = getelementptr inbounds nuw i8, ptr %122, i32 1
  store ptr %123, ptr %7, align 8, !tbaa !6
  br label %117, !llvm.loop !41

124:                                              ; preds = %117
  br label %97, !llvm.loop !42

125:                                              ; preds = %97
  br label %126

126:                                              ; preds = %125, %49
  store i32 1, ptr %5, align 4, !tbaa !19
  br label %127

127:                                              ; preds = %126, %42, %36
  %128 = load ptr, ptr %9, align 8, !tbaa !38
  call void @free(ptr noundef %128) #7
  %129 = load ptr, ptr %8, align 8, !tbaa !13
  call void @BN_free(ptr noundef %129)
  %130 = load i32, ptr %5, align 4, !tbaa !19
  %131 = icmp ne i32 %130, 0
  br i1 %131, label %134, label %132

132:                                              ; preds = %127
  %133 = load ptr, ptr %6, align 8, !tbaa !6
  call void @free(ptr noundef %133) #7
  store ptr null, ptr %6, align 8, !tbaa !6
  br label %134

134:                                              ; preds = %132, %127
  %135 = load ptr, ptr %6, align 8, !tbaa !6
  call void @llvm.lifetime.end.p0(i64 8, ptr %10) #7
  call void @llvm.lifetime.end.p0(i64 8, ptr %9) #7
  call void @llvm.lifetime.end.p0(i64 8, ptr %8) #7
  call void @llvm.lifetime.end.p0(i64 8, ptr %7) #7
  call void @llvm.lifetime.end.p0(i64 8, ptr %6) #7
  call void @llvm.lifetime.end.p0(i64 4, ptr %5) #7
  call void @llvm.lifetime.end.p0(i64 4, ptr %4) #7
  call void @llvm.lifetime.end.p0(i64 4, ptr %3) #7
  ret ptr %135
}