; Function Attrs: nounwind uwtable
define hidden noundef ptr @BN_bn2dec(ptr noundef %0) local_unnamed_addr #0 {
  %2 = tail call i32 @BN_num_bits(ptr noundef %0) #9
  %3 = mul i32 %2, 3
  %4 = sdiv i32 %3, 10
  %5 = sdiv i32 %3, 1000
  %6 = add nsw i32 %4, %5
  %7 = add nsw i32 %6, 2
  %8 = sdiv i32 %7, 19
  %9 = add nsw i32 %8, 1
  %10 = sext i32 %9 to i64
  %11 = shl nsw i64 %10, 3
  %12 = tail call noalias ptr @malloc(i64 noundef %11) #10
  %13 = add nsw i32 %6, 5
  %14 = sext i32 %13 to i64
  %15 = tail call noalias ptr @malloc(i64 noundef %14) #10
  %16 = icmp eq ptr %15, null
  %17 = icmp eq ptr %12, null
  %or.cond = or i1 %17, %16
  br i1 %or.cond, label %18, label %19

18:                                               ; preds = %1
  tail call void @ERR_put_error(i32 noundef 3, i32 noundef 0, i32 noundef 65, ptr noundef nonnull @.str, i32 noundef 391) #9
  br label %.critedge

19:                                               ; preds = %1
  %20 = tail call ptr @BN_dup(ptr noundef %0) #9
  %21 = icmp eq ptr %20, null
  br i1 %21, label %.critedge, label %22

22:                                               ; preds = %19
  %23 = tail call i32 @BN_is_zero(ptr noundef nonnull %20) #9
  %.not = icmp eq i32 %23, 0
  br i1 %.not, label %26, label %24

24:                                               ; preds = %22
  %25 = getelementptr inbounds nuw i8, ptr %15, i64 1
  store i8 48, ptr %15, align 1, !tbaa !14
  store i8 0, ptr %25, align 1, !tbaa !14
  br label %.loopexit61

26:                                               ; preds = %22
  %27 = tail call i32 @BN_is_negative(ptr noundef nonnull %20) #9
  %.not52 = icmp eq i32 %27, 0
  br i1 %.not52, label %30, label %28

28:                                               ; preds = %26
  %29 = getelementptr inbounds nuw i8, ptr %15, i64 1
  store i8 45, ptr %15, align 1, !tbaa !14
  br label %30

30:                                               ; preds = %28, %26
  %.044 = phi ptr [ %29, %28 ], [ %15, %26 ]
  %31 = tail call i32 @BN_is_zero(ptr noundef nonnull %20) #9
  %.not5362 = icmp eq i32 %31, 0
  br i1 %.not5362, label %.lr.ph, label %._crit_edge

.lr.ph:                                           ; preds = %30, %.lr.ph
  %.063 = phi ptr [ %33, %.lr.ph ], [ %12, %30 ]
  %32 = tail call i64 @BN_div_word(ptr noundef nonnull %20, i64 noundef -8446744073709551616) #9
  store i64 %32, ptr %.063, align 8, !tbaa !16
  %33 = getelementptr inbounds nuw i8, ptr %.063, i64 8
  %34 = tail call i32 @BN_is_zero(ptr noundef nonnull %20) #9
  %.not53 = icmp eq i32 %34, 0
  br i1 %.not53, label %.lr.ph, label %._crit_edge, !llvm.loop !33

._crit_edge:                                      ; preds = %.lr.ph, %30
  %.0.lcssa = phi ptr [ %12, %30 ], [ %33, %.lr.ph ]
  %35 = getelementptr inbounds i8, ptr %.0.lcssa, i64 -8
  %36 = ptrtoint ptr %.044 to i64
  %37 = ptrtoint ptr %15 to i64
  %.neg = add i64 %14, %37
  %38 = sub i64 %.neg, %36
  %39 = load i64, ptr %35, align 8, !tbaa !16
  %40 = tail call i32 (ptr, i64, ptr, ...) @BIO_snprintf(ptr noundef %.044, i64 noundef %38, ptr noundef nonnull @.str.1, i64 noundef %39) #9
  br label %41

41:                                               ; preds = %41, %._crit_edge
  %.145 = phi ptr [ %.044, %._crit_edge ], [ %43, %41 ]
  %42 = load i8, ptr %.145, align 1, !tbaa !14
  %.not54 = icmp eq i8 %42, 0
  %43 = getelementptr inbounds nuw i8, ptr %.145, i64 1
  br i1 %.not54, label %.preheader, label %41, !llvm.loop !34

.preheader:                                       ; preds = %41
  %.not5564 = icmp eq ptr %35, %12
  br i1 %.not5564, label %.loopexit61, label %.lr.ph67

.loopexit:                                        ; preds = %49
  %.not55 = icmp eq ptr %44, %12
  br i1 %.not55, label %.loopexit61, label %.lr.ph67, !llvm.loop !35

.lr.ph67:                                         ; preds = %.preheader, %.loopexit
  %.166 = phi ptr [ %44, %.loopexit ], [ %35, %.preheader ]
  %.265 = phi ptr [ %.3, %.loopexit ], [ %.145, %.preheader ]
  %44 = getelementptr inbounds i8, ptr %.166, i64 -8
  %45 = ptrtoint ptr %.265 to i64
  %46 = sub i64 %.neg, %45
  %47 = load i64, ptr %44, align 8, !tbaa !16
  %48 = tail call i32 (ptr, i64, ptr, ...) @BIO_snprintf(ptr noundef nonnull %.265, i64 noundef %46, ptr noundef nonnull @.str.2, i64 noundef %47) #9
  br label %49

49:                                               ; preds = %49, %.lr.ph67
  %.3 = phi ptr [ %.265, %.lr.ph67 ], [ %51, %49 ]
  %50 = load i8, ptr %.3, align 1, !tbaa !14
  %.not57 = icmp eq i8 %50, 0
  %51 = getelementptr inbounds nuw i8, ptr %.3, i64 1
  br i1 %.not57, label %.loopexit, label %49, !llvm.loop !36

.loopexit61:                                      ; preds = %.loopexit, %.preheader, %24
  tail call void @free(ptr noundef %12) #9
  tail call void @BN_free(ptr noundef nonnull %20) #9
  br label %52

.critedge:                                        ; preds = %19, %18
  tail call void @free(ptr noundef %12) #9
  tail call void @BN_free(ptr noundef null) #9
  tail call void @free(ptr noundef %15) #9
  br label %52

52:                                               ; preds = %.loopexit61, %.critedge
  %.046 = phi ptr [ %15, %.loopexit61 ], [ null, %.critedge ]
  ret ptr %.046
}